target datalayout = "e-m:e-p270:32:32-p271:32:32-p272:64:64-i64:64-i128:128-f80:128-n8:16:32:64-S128"
target triple = "x86_64-pc-linux-gnu"

%struct.Conjuncts = type { ptr, ptr }

@one = internal global ptr null, align 8

; Function Attrs: nounwind uwtable
define internal ptr @CheckTablesCacheAndReturn(ptr noundef %0, ptr noundef %1, ptr noundef %2, ptr noundef %3, ptr noundef %4) #0 {
  %6 = alloca ptr, align 8
  %7 = alloca ptr, align 8
  %8 = alloca ptr, align 8
  %9 = alloca ptr, align 8
  %10 = alloca ptr, align 8
  %11 = alloca ptr, align 8
  %12 = alloca i32, align 4
  %13 = alloca i32, align 4
  %14 = alloca ptr, align 8
  %15 = alloca i32, align 4
  store ptr %0, ptr %7, align 8, !tbaa !8
  store ptr %1, ptr %8, align 8, !tbaa !8
  store ptr %2, ptr %9, align 8, !tbaa !8
  store ptr %3, ptr %10, align 8, !tbaa !38
  store ptr %4, ptr %11, align 8, !tbaa !38
  call void @llvm.lifetime.start.p0(i64 4, ptr %12) #5
  call void @llvm.lifetime.start.p0(i64 4, ptr %13) #5
  call void @llvm.lifetime.start.p0(i64 8, ptr %14) #5
  store i32 0, ptr %13, align 4, !tbaa !12
  %16 = load ptr, ptr %8, align 8, !tbaa !8
  %17 = load ptr, ptr %9, align 8, !tbaa !8
  %18 = load ptr, ptr %10, align 8, !tbaa !38
  %19 = call i32 @PairInTables(ptr noundef %16, ptr noundef %17, ptr noundef %18)
  store i32 %19, ptr %12, align 4, !tbaa !12
  %20 = call noalias ptr @malloc(i64 noundef 16) #6
  store ptr %20, ptr %14, align 8, !tbaa !53
  %21 = load ptr, ptr %14, align 8, !tbaa !53
  %22 = icmp eq ptr %21, null
  br i1 %22, label %23, label %24

23:                                               ; preds = %5
  store ptr null, ptr %6, align 8
  store i32 1, ptr %15, align 4
  br label %202

24:                                               ; preds = %5
  %25 = load i32, ptr %12, align 4, !tbaa !12
  %26 = icmp eq i32 %25, 8
  br i1 %26, label %30, label %27

27:                                               ; preds = %24
  %28 = load i32, ptr %12, align 4, !tbaa !12
  %29 = icmp eq i32 %28, 5
  br i1 %29, label %30, label %66

30:                                               ; preds = %27, %24
  %31 = load ptr, ptr %8, align 8, !tbaa !8
  %32 = load ptr, ptr @one, align 8, !tbaa !8
  %33 = icmp ne ptr %31, %32
  br i1 %33, label %34, label %59

34:                                               ; preds = %30
  store i32 0, ptr %13, align 4, !tbaa !12
  %35 = load ptr, ptr %10, align 8, !tbaa !38
  %36 = load ptr, ptr %8, align 8, !tbaa !8
  %37 = ptrtoint ptr %36 to i64
  %38 = and i64 %37, -2
  %39 = inttoptr i64 %38 to ptr
  %40 = call i32 @st__lookup_int(ptr noundef %35, ptr noundef %39, ptr noundef %13)
  %41 = icmp ne i32 %40, 0
  br i1 %41, label %42, label %45

42:                                               ; preds = %34
  %43 = load i32, ptr %13, align 4, !tbaa !12
  %44 = or i32 %43, 1
  store i32 %44, ptr %13, align 4, !tbaa !12
  br label %46

45:                                               ; preds = %34
  store i32 1, ptr %13, align 4, !tbaa !12
  br label %46

46:                                               ; preds = %45, %42
  %47 = load ptr, ptr %10, align 8, !tbaa !38
  %48 = load ptr, ptr %8, align 8, !tbaa !8
  %49 = ptrtoint ptr %48 to i64
  %50 = and i64 %49, -2
  %51 = inttoptr i64 %50 to ptr
  %52 = load i32, ptr %13, align 4, !tbaa !12
  %53 = sext i32 %52 to i64
  %54 = inttoptr i64 %53 to ptr
  %55 = call i32 @st__insert(ptr noundef %47, ptr noundef %51, ptr noundef %54)
  %56 = icmp eq i32 %55, -10000
  br i1 %56, label %57, label %58

57:                                               ; preds = %46
  store ptr null, ptr %6, align 8
  store i32 1, ptr %15, align 4
  br label %202

58:                                               ; preds = %46
  br label %59

59:                                               ; preds = %58, %30
  %60 = load ptr, ptr %8, align 8, !tbaa !8
  %61 = load ptr, ptr %14, align 8, !tbaa !53
  %62 = getelementptr inbounds nuw %struct.Conjuncts, ptr %61, i32 0, i32 0
  store ptr %60, ptr %62, align 8, !tbaa !57
  %63 = load ptr, ptr %9, align 8, !tbaa !8
  %64 = load ptr, ptr %14, align 8, !tbaa !53
  %65 = getelementptr inbounds nuw %struct.Conjuncts, ptr %64, i32 0, i32 1
  store ptr %63, ptr %65, align 8, !tbaa !59
  br label %187

66:                                               ; preds = %27
  %67 = load i32, ptr %12, align 4, !tbaa !12
  %68 = icmp eq i32 %67, 7
  br i1 %68, label %72, label %69

69:                                               ; preds = %66
  %70 = load i32, ptr %12, align 4, !tbaa !12
  %71 = icmp eq i32 %70, 3
  br i1 %71, label %72, label %108

72:                                               ; preds = %69, %66
  %73 = load ptr, ptr %9, align 8, !tbaa !8
  %74 = load ptr, ptr @one, align 8, !tbaa !8
  %75 = icmp ne ptr %73, %74
  br i1 %75, label %76, label %101

76:                                               ; preds = %72
  store i32 0, ptr %13, align 4, !tbaa !12
  %77 = load ptr, ptr %10, align 8, !tbaa !38
  %78 = load ptr, ptr %9, align 8, !tbaa !8
  %79 = ptrtoint ptr %78 to i64
  %80 = and i64 %79, -2
  %81 = inttoptr i64 %80 to ptr
  %82 = call i32 @st__lookup_int(ptr noundef %77, ptr noundef %81, ptr noundef %13)
  %83 = icmp ne i32 %82, 0
  br i1 %83, label %84, label %87

84:                                               ; preds = %76
  %85 = load i32, ptr %13, align 4, !tbaa !12
  %86 = or i32 %85, 2
  store i32 %86, ptr %13, align 4, !tbaa !12
  br label %88

87:                                               ; preds = %76
  store i32 2, ptr %13, align 4, !tbaa !12
  br label %88

88:                                               ; preds = %87, %84
  %89 = load ptr, ptr %10, align 8, !tbaa !38
  %90 = load ptr, ptr %9, align 8, !tbaa !8
  %91 = ptrtoint ptr %90 to i64
  %92 = and i64 %91, -2
  %93 = inttoptr i64 %92 to ptr
  %94 = load i32, ptr %13, align 4, !tbaa !12
  %95 = sext i32 %94 to i64
  %96 = inttoptr i64 %95 to ptr
  %97 = call i32 @st__insert(ptr noundef %89, ptr noundef %93, ptr noundef %96)
  %98 = icmp eq i32 %97, -10000
  br i1 %98, label %99, label %100

99:                                               ; preds = %88
  store ptr null, ptr %6, align 8
  store i32 1, ptr %15, align 4
  br label %202

100:                                              ; preds = %88
  br label %101

101:                                              ; preds = %100, %72
  %102 = load ptr, ptr %8, align 8, !tbaa !8
  %103 = load ptr, ptr %14, align 8, !tbaa !53
  %104 = getelementptr inbounds nuw %struct.Conjuncts, ptr %103, i32 0, i32 0
  store ptr %102, ptr %104, align 8, !tbaa !57
  %105 = load ptr, ptr %9, align 8, !tbaa !8
  %106 = load ptr, ptr %14, align 8, !tbaa !53
  %107 = getelementptr inbounds nuw %struct.Conjuncts, ptr %106, i32 0, i32 1
  store ptr %105, ptr %107, align 8, !tbaa !59
  br label %186

108:                                              ; preds = %69
  %109 = load i32, ptr %12, align 4, !tbaa !12
  %110 = icmp eq i32 %109, 6
  br i1 %110, label %111, label %135

111:                                              ; preds = %108
  %112 = load ptr, ptr %8, align 8, !tbaa !8
  %113 = load ptr, ptr @one, align 8, !tbaa !8
  %114 = icmp ne ptr %112, %113
  br i1 %114, label %115, label %128

115:                                              ; preds = %111
  store i32 2, ptr %13, align 4, !tbaa !12
  %116 = load ptr, ptr %10, align 8, !tbaa !38
  %117 = load ptr, ptr %8, align 8, !tbaa !8
  %118 = ptrtoint ptr %117 to i64
  %119 = and i64 %118, -2
  %120 = inttoptr i64 %119 to ptr
  %121 = load i32, ptr %13, align 4, !tbaa !12
  %122 = sext i32 %121 to i64
  %123 = inttoptr i64 %122 to ptr
  %124 = call i32 @st__insert(ptr noundef %116, ptr noundef %120, ptr noundef %123)
  %125 = icmp eq i32 %124, -10000
  br i1 %125, label %126, label %127

126:                                              ; preds = %115
  store ptr null, ptr %6, align 8
  store i32 1, ptr %15, align 4
  br label %202

127:                                              ; preds = %115
  br label %128

128:                                              ; preds = %127, %111
  %129 = load ptr, ptr %9, align 8, !tbaa !8
  %130 = load ptr, ptr %14, align 8, !tbaa !53
  %131 = getelementptr inbounds nuw %struct.Conjuncts, ptr %130, i32 0, i32 0
  store ptr %129, ptr %131, align 8, !tbaa !57
  %132 = load ptr, ptr %8, align 8, !tbaa !8
  %133 = load ptr, ptr %14, align 8, !tbaa !53
  %134 = getelementptr inbounds nuw %struct.Conjuncts, ptr %133, i32 0, i32 1
  store ptr %132, ptr %134, align 8, !tbaa !59
  br label %185

135:                                              ; preds = %108
  %136 = load i32, ptr %12, align 4, !tbaa !12
  %137 = icmp eq i32 %136, 4
  br i1 %137, label %138, label %162

138:                                              ; preds = %135
  %139 = load ptr, ptr %9, align 8, !tbaa !8
  %140 = load ptr, ptr @one, align 8, !tbaa !8
  %141 = icmp ne ptr %139, %140
  br i1 %141, label %142, label %155

142:                                              ; preds = %138
  store i32 1, ptr %13, align 4, !tbaa !12
  %143 = load ptr, ptr %10, align 8, !tbaa !38
  %144 = load ptr, ptr %9, align 8, !tbaa !8
  %145 = ptrtoint ptr %144 to i64
  %146 = and i64 %145, -2
  %147 = inttoptr i64 %146 to ptr
  %148 = load i32, ptr %13, align 4, !tbaa !12
  %149 = sext i32 %148 to i64
  %150 = inttoptr i64 %149 to ptr
  %151 = call i32 @st__insert(ptr noundef %143, ptr noundef %147, ptr noundef %150)
  %152 = icmp eq i32 %151, -10000
  br i1 %152, label %153, label %154

153:                                              ; preds = %142
  store ptr null, ptr %6, align 8
  store i32 1, ptr %15, align 4
  br label %202

154:                                              ; preds = %142
  br label %155

155:                                              ; preds = %154, %138
  %156 = load ptr, ptr %9, align 8, !tbaa !8
  %157 = load ptr, ptr %14, align 8, !tbaa !53
  %158 = getelementptr inbounds nuw %struct.Conjuncts, ptr %157, i32 0, i32 0
  store ptr %156, ptr %158, align 8, !tbaa !57
  %159 = load ptr, ptr %8, align 8, !tbaa !8
  %160 = load ptr, ptr %14, align 8, !tbaa !53
  %161 = getelementptr inbounds nuw %struct.Conjuncts, ptr %160, i32 0, i32 1
  store ptr %159, ptr %161, align 8, !tbaa !59
  br label %184

162:                                              ; preds = %135
  %163 = load i32, ptr %12, align 4, !tbaa !12
  %164 = icmp eq i32 %163, 2
  br i1 %164, label %165, label %172

165:                                              ; preds = %162
  %166 = load ptr, ptr %9, align 8, !tbaa !8
  %167 = load ptr, ptr %14, align 8, !tbaa !53
  %168 = getelementptr inbounds nuw %struct.Conjuncts, ptr %167, i32 0, i32 0
  store ptr %166, ptr %168, align 8, !tbaa !57
  %169 = load ptr, ptr %8, align 8, !tbaa !8
  %170 = load ptr, ptr %14, align 8, !tbaa !53
  %171 = getelementptr inbounds nuw %struct.Conjuncts, ptr %170, i32 0, i32 1
  store ptr %169, ptr %171, align 8, !tbaa !59
  br label %183

172:                                              ; preds = %162
  %173 = load i32, ptr %12, align 4, !tbaa !12
  %174 = icmp eq i32 %173, 1
  br i1 %174, label %175, label %182

175:                                              ; preds = %172
  %176 = load ptr, ptr %8, align 8, !tbaa !8
  %177 = load ptr, ptr %14, align 8, !tbaa !53
  %178 = getelementptr inbounds nuw %struct.Conjuncts, ptr %177, i32 0, i32 0
  store ptr %176, ptr %178, align 8, !tbaa !57
  %179 = load ptr, ptr %9, align 8, !tbaa !8
  %180 = load ptr, ptr %14, align 8, !tbaa !53
  %181 = getelementptr inbounds nuw %struct.Conjuncts, ptr %180, i32 0, i32 1
  store ptr %179, ptr %181, align 8, !tbaa !59
  br label %182

182:                                              ; preds = %175, %172
  br label %183

183:                                              ; preds = %182, %165
  br label %184

184:                                              ; preds = %183, %155
  br label %185

185:                                              ; preds = %184, %128
  br label %186

186:                                              ; preds = %185, %101
  br label %187

187:                                              ; preds = %186, %59
  %188 = load ptr, ptr %11, align 8, !tbaa !38
  %189 = load ptr, ptr %7, align 8, !tbaa !8
  %190 = load ptr, ptr %14, align 8, !tbaa !53
  %191 = call i32 @st__insert(ptr noundef %188, ptr noundef %189, ptr noundef %190)
  %192 = icmp eq i32 %191, -10000
  br i1 %192, label %193, label %200

193:                                              ; preds = %187
  %194 = load ptr, ptr %14, align 8, !tbaa !53
  %195 = icmp ne ptr %194, null
  br i1 %195, label %196, label %198

196:                                              ; preds = %193
  %197 = load ptr, ptr %14, align 8, !tbaa !53
  call void @free(ptr noundef %197) #5
  store ptr null, ptr %14, align 8, !tbaa !53
  br label %199

198:                                              ; preds = %193
  br label %199

199:                                              ; preds = %198, %196
  store ptr null, ptr %6, align 8
  store i32 1, ptr %15, align 4
  br label %202

200:                                              ; preds = %187
  %201 = load ptr, ptr %14, align 8, !tbaa !53
  store ptr %201, ptr %6, align 8
  store i32 1, ptr %15, align 4
  br label %202

202:                                              ; preds = %200, %199, %153, %126, %99, %57, %23
  call void @llvm.lifetime.end.p0(i64 8, ptr %14) #5
  call void @llvm.lifetime.end.p0(i64 4, ptr %13) #5
  call void @llvm.lifetime.end.p0(i64 4, ptr %12) #5
  %203 = load ptr, ptr %6, align 8
  ret ptr %203
}