; Function Attrs: nounwind uwtable
define internal fastcc noundef ptr @CheckTablesCacheAndReturn(ptr noundef %0, ptr noundef %1, ptr noundef %2, ptr noundef nonnull %3, ptr noundef nonnull %4) unnamed_addr #0 {
  %6 = alloca i32, align 4
  call void @llvm.lifetime.start.p0(i64 4, ptr nonnull %6) #8
  store i32 0, ptr %6, align 4, !tbaa !62
  %7 = tail call fastcc i32 @PairInTables(ptr noundef %1, ptr noundef %2, ptr noundef %3)
  %8 = tail call noalias dereferenceable_or_null(16) ptr @malloc(i64 noundef 16) #9
  %9 = icmp eq ptr %8, null
  br i1 %9, label %62, label %10

10:                                               ; preds = %5
  switch i32 %7, label %24 [
    i32 8, label %11
    i32 5, label %11
  ]

11:                                               ; preds = %10, %10
  %12 = load ptr, ptr @one, align 8, !tbaa !27
  %.not69 = icmp eq ptr %1, %12
  br i1 %.not69, label %.sink.split, label %13

13:                                               ; preds = %11
  store i32 0, ptr %6, align 4, !tbaa !62
  %14 = ptrtoint ptr %1 to i64
  %15 = and i64 %14, -2
  %16 = inttoptr i64 %15 to ptr
  %17 = call i32 @st__lookup_int(ptr noundef nonnull %3, ptr noundef %16, ptr noundef nonnull %6) #8
  %.not70 = icmp eq i32 %17, 0
  %18 = load i32, ptr %6, align 4
  %19 = or i32 %18, 1
  %storemerge71 = select i1 %.not70, i32 1, i32 %19
  store i32 %storemerge71, ptr %6, align 4, !tbaa !62
  %20 = sext i32 %storemerge71 to i64
  %21 = inttoptr i64 %20 to ptr
  %22 = call i32 @st__insert(ptr noundef nonnull %3, ptr noundef %16, ptr noundef nonnull %21) #8
  %23 = icmp eq i32 %22, -10000
  br i1 %23, label %62, label %.sink.split

24:                                               ; preds = %10
  %25 = and i32 %7, 11
  %or.cond3 = icmp eq i32 %25, 3
  br i1 %or.cond3, label %26, label %39

26:                                               ; preds = %24
  %27 = load ptr, ptr @one, align 8, !tbaa !27
  %.not67 = icmp eq ptr %2, %27
  br i1 %.not67, label %.sink.split, label %28

28:                                               ; preds = %26
  store i32 0, ptr %6, align 4, !tbaa !62
  %29 = ptrtoint ptr %2 to i64
  %30 = and i64 %29, -2
  %31 = inttoptr i64 %30 to ptr
  %32 = call i32 @st__lookup_int(ptr noundef nonnull %3, ptr noundef %31, ptr noundef nonnull %6) #8
  %.not68 = icmp eq i32 %32, 0
  %33 = load i32, ptr %6, align 4
  %34 = or i32 %33, 2
  %storemerge = select i1 %.not68, i32 2, i32 %34
  store i32 %storemerge, ptr %6, align 4, !tbaa !62
  %35 = sext i32 %storemerge to i64
  %36 = inttoptr i64 %35 to ptr
  %37 = call i32 @st__insert(ptr noundef nonnull %3, ptr noundef %31, ptr noundef nonnull %36) #8
  %38 = icmp eq i32 %37, -10000
  br i1 %38, label %62, label %.sink.split

39:                                               ; preds = %24
  switch i32 %7, label %58 [
    i32 6, label %40
    i32 4, label %48
    i32 2, label %.sink.split
    i32 1, label %56
  ]

40:                                               ; preds = %39
  %41 = load ptr, ptr @one, align 8, !tbaa !27
  %.not66 = icmp eq ptr %1, %41
  br i1 %.not66, label %.sink.split, label %42

42:                                               ; preds = %40
  store i32 2, ptr %6, align 4, !tbaa !62
  %43 = ptrtoint ptr %1 to i64
  %44 = and i64 %43, -2
  %45 = inttoptr i64 %44 to ptr
  %46 = tail call i32 @st__insert(ptr noundef nonnull %3, ptr noundef %45, ptr noundef nonnull inttoptr (i64 2 to ptr)) #8
  %47 = icmp eq i32 %46, -10000
  br i1 %47, label %62, label %.sink.split

48:                                               ; preds = %39
  %49 = load ptr, ptr @one, align 8, !tbaa !27
  %.not = icmp eq ptr %2, %49
  br i1 %.not, label %.sink.split, label %50

50:                                               ; preds = %48
  store i32 1, ptr %6, align 4, !tbaa !62
  %51 = ptrtoint ptr %2 to i64
  %52 = and i64 %51, -2
  %53 = inttoptr i64 %52 to ptr
  %54 = tail call i32 @st__insert(ptr noundef nonnull %3, ptr noundef %53, ptr noundef nonnull inttoptr (i64 1 to ptr)) #8
  %55 = icmp eq i32 %54, -10000
  br i1 %55, label %62, label %.sink.split

56:                                               ; preds = %39
  br label %.sink.split

.sink.split:                                      ; preds = %39, %48, %50, %40, %42, %26, %28, %11, %13, %56
  %.sink73 = phi ptr [ %1, %56 ], [ %1, %13 ], [ %1, %11 ], [ %1, %28 ], [ %1, %26 ], [ %2, %42 ], [ %2, %40 ], [ %2, %50 ], [ %2, %48 ], [ %2, %39 ]
  %.sink = phi ptr [ %2, %56 ], [ %2, %13 ], [ %2, %11 ], [ %2, %28 ], [ %2, %26 ], [ %1, %42 ], [ %1, %40 ], [ %1, %50 ], [ %1, %48 ], [ %1, %39 ]
  store ptr %.sink73, ptr %8, align 8, !tbaa !42
  %57 = getelementptr inbounds nuw i8, ptr %8, i64 8
  store ptr %.sink, ptr %57, align 8, !tbaa !44
  br label %58

58:                                               ; preds = %.sink.split, %39
  %59 = call i32 @st__insert(ptr noundef nonnull %4, ptr noundef %0, ptr noundef nonnull %8) #8
  %60 = icmp eq i32 %59, -10000
  br i1 %60, label %61, label %62

61:                                               ; preds = %58
  call void @free(ptr noundef nonnull %8) #8
  br label %62

62:                                               ; preds = %58, %50, %42, %28, %13, %5, %61
  %.0 = phi ptr [ null, %61 ], [ null, %5 ], [ null, %13 ], [ null, %28 ], [ null, %42 ], [ null, %50 ], [ %8, %58 ]
  call void @llvm.lifetime.end.p0(i64 4, ptr nonnull %6) #8
  ret ptr %.0
}